; Function Attrs: mustprogress noreturn uwtable
define dso_local void @_ZN3fmt2v96detail18throw_format_errorEPKc(ptr noundef %message) local_unnamed_addr #3 personality ptr @__gxx_personality_v0 {
entry:
  %exception = tail call ptr @__cxa_allocate_exception(i64 16) #25
  invoke void @_ZN3fmt2v912format_errorC2EPKc(ptr noundef nonnull align 8 dereferenceable(16) %exception, ptr noundef %message)
          to label %invoke.cont unwind label %lpad

invoke.cont:                                      ; preds = %entry
  tail call void @__cxa_throw(ptr nonnull %exception, ptr nonnull @_ZTIN3fmt2v912format_errorE, ptr nonnull @_ZN3fmt2v912format_errorD2Ev) #26
  unreachable

lpad:                                             ; preds = %entry
  %0 = landingpad { ptr, i32 }
          cleanup
  tail call void @__cxa_free_exception(ptr %exception) #25
  resume { ptr, i32 } %0
}